target datalayout = "e-m:e-p270:32:32-p271:32:32-p272:64:64-i64:64-i128:128-f80:128-n8:16:32:64-S128"
target triple = "x86_64-pc-linux-gnu"

%class.anon.91 = type { ptr }

; Function Attrs: mustprogress uwtable
define internal void @"_ZZZN3nix13copyRecursiveERNS_14SourceAccessorERKNS_9CanonPathERNS_20FileSystemObjectSinkERKNSt7__cxx1112basic_stringIcSt11char_traitsIcESaIcEEEENK3$_0clERNS_21CreateRegularFileSinkEENKUlmE_clEm"(ptr noundef nonnull align 8 dereferenceable(8) %0, i64 noundef %1) #5 align 2 {
  %3 = alloca ptr, align 8
  %4 = alloca i64, align 8
  store ptr %0, ptr %3, align 8
  store i64 %1, ptr %4, align 8
  %5 = load ptr, ptr %3, align 8
  %6 = getelementptr inbounds %class.anon.91, ptr %5, i32 0, i32 0
  %7 = load ptr, ptr %6, align 8
  %8 = load i64, ptr %4, align 8
  %9 = load ptr, ptr %7, align 8
  %10 = getelementptr inbounds ptr, ptr %9, i64 5
  %11 = load ptr, ptr %10, align 8
  call void %11(ptr noundef nonnull align 8 dereferenceable(8) %7, i64 noundef %8)
  ret void
}

; Function Attrs: mustprogress nounwind uwtable
define linkonce_odr noundef ptr @_ZNKSt9_Any_data9_M_accessEv(ptr noundef nonnull align 8 dereferenceable(16) %0) #2 comdat align 2 {
  %2 = alloca ptr, align 8
  store ptr %0, ptr %2, align 8
  %3 = load ptr, ptr %2, align 8
  %4 = getelementptr inbounds [16 x i8], ptr %3, i64 0, i64 0
  ret ptr %4
}

; Function Attrs: mustprogress uwtable
define internal void @"_ZSt13__invoke_implIvRZZN3nix13copyRecursiveERNS0_14SourceAccessorERKNS0_9CanonPathERNS0_20FileSystemObjectSinkERKNSt7__cxx1112basic_stringIcSt11char_traitsIcESaIcEEEENK3$_0clERNS0_21CreateRegularFileSinkEEUlmE_JmEET_St14__invoke_otherOT0_DpOT1_"(ptr noundef nonnull align 8 dereferenceable(8) %0, ptr noundef nonnull align 8 dereferenceable(8) %1) #5 {
  %3 = alloca ptr, align 8
  %4 = alloca ptr, align 8
  store ptr %0, ptr %3, align 8
  store ptr %1, ptr %4, align 8
  %5 = load ptr, ptr %3, align 8
  %6 = load ptr, ptr %4, align 8
  %7 = load i64, ptr %6, align 8
  call void @"_ZZZN3nix13copyRecursiveERNS_14SourceAccessorERKNS_9CanonPathERNS_20FileSystemObjectSinkERKNSt7__cxx1112basic_stringIcSt11char_traitsIcESaIcEEEENK3$_0clERNS_21CreateRegularFileSinkEENKUlmE_clEm"(ptr noundef nonnull align 8 dereferenceable(8) %5, i64 noundef %7)
  ret void
}

; Function Attrs: mustprogress nounwind uwtable
define internal noundef nonnull align 8 dereferenceable(8) ptr @"_ZNKSt9_Any_data9_M_accessIZZN3nix13copyRecursiveERNS1_14SourceAccessorERKNS1_9CanonPathERNS1_20FileSystemObjectSinkERKNSt7__cxx1112basic_stringIcSt11char_traitsIcESaIcEEEENK3$_0clERNS1_21CreateRegularFileSinkEEUlmE_EERKT_v"(ptr noundef nonnull align 8 dereferenceable(16) %0) #2 align 2 {
  %2 = alloca ptr, align 8
  store ptr %0, ptr %2, align 8
  %3 = load ptr, ptr %2, align 8
  %4 = call noundef ptr @_ZNKSt9_Any_data9_M_accessEv(ptr noundef nonnull align 8 dereferenceable(16) %3) #1
  ret ptr %4
}

; Function Attrs: mustprogress uwtable
define internal void @"_ZSt10__invoke_rIvRZZN3nix13copyRecursiveERNS0_14SourceAccessorERKNS0_9CanonPathERNS0_20FileSystemObjectSinkERKNSt7__cxx1112basic_stringIcSt11char_traitsIcESaIcEEEENK3$_0clERNS0_21CreateRegularFileSinkEEUlmE_JmEENSt9enable_ifIX16is_invocable_r_vIT_T0_DpT1_EESM_E4typeEOSN_DpOSO_"(ptr noundef nonnull align 8 dereferenceable(8) %0, ptr noundef nonnull align 8 dereferenceable(8) %1) #5 {
  %3 = alloca ptr, align 8
  %4 = alloca ptr, align 8
  store ptr %0, ptr %3, align 8
  store ptr %1, ptr %4, align 8
  %5 = load ptr, ptr %3, align 8
  %6 = load ptr, ptr %4, align 8
  call void @"_ZSt13__invoke_implIvRZZN3nix13copyRecursiveERNS0_14SourceAccessorERKNS0_9CanonPathERNS0_20FileSystemObjectSinkERKNSt7__cxx1112basic_stringIcSt11char_traitsIcESaIcEEEENK3$_0clERNS0_21CreateRegularFileSinkEEUlmE_JmEET_St14__invoke_otherOT0_DpOT1_"(ptr noundef nonnull align 8 dereferenceable(8) %5, ptr noundef nonnull align 8 dereferenceable(8) %6)
  ret void
}

; Function Attrs: mustprogress nounwind uwtable
define internal noundef ptr @"_ZNSt14_Function_base13_Base_managerIZZN3nix13copyRecursiveERNS1_14SourceAccessorERKNS1_9CanonPathERNS1_20FileSystemObjectSinkERKNSt7__cxx1112basic_stringIcSt11char_traitsIcESaIcEEEENK3$_0clERNS1_21CreateRegularFileSinkEEUlmE_E14_M_get_pointerERKSt9_Any_data"(ptr noundef nonnull align 8 dereferenceable(16) %0) #2 align 2 {
  %2 = alloca ptr, align 8
  %3 = alloca ptr, align 8
  store ptr %0, ptr %2, align 8
  %4 = load ptr, ptr %2, align 8
  %5 = call noundef nonnull align 8 dereferenceable(8) ptr @"_ZNKSt9_Any_data9_M_accessIZZN3nix13copyRecursiveERNS1_14SourceAccessorERKNS1_9CanonPathERNS1_20FileSystemObjectSinkERKNSt7__cxx1112basic_stringIcSt11char_traitsIcESaIcEEEENK3$_0clERNS1_21CreateRegularFileSinkEEUlmE_EERKT_v"(ptr noundef nonnull align 8 dereferenceable(16) %4) #1
  store ptr %5, ptr %3, align 8
  %6 = load ptr, ptr %3, align 8
  ret ptr %6
}

; Function Attrs: mustprogress uwtable
define internal void @"_ZNSt17_Function_handlerIFvmEZZN3nix13copyRecursiveERNS1_14SourceAccessorERKNS1_9CanonPathERNS1_20FileSystemObjectSinkERKNSt7__cxx1112basic_stringIcSt11char_traitsIcESaIcEEEENK3$_0clERNS1_21CreateRegularFileSinkEEUlmE_E9_M_invokeERKSt9_Any_dataOm"(ptr noundef nonnull align 8 dereferenceable(16) %0, ptr noundef nonnull align 8 dereferenceable(8) %1) #5 align 2 {
  %3 = alloca ptr, align 8
  %4 = alloca ptr, align 8
  store ptr %0, ptr %3, align 8
  store ptr %1, ptr %4, align 8
  %5 = load ptr, ptr %3, align 8
  %6 = call noundef ptr @"_ZNSt14_Function_base13_Base_managerIZZN3nix13copyRecursiveERNS1_14SourceAccessorERKNS1_9CanonPathERNS1_20FileSystemObjectSinkERKNSt7__cxx1112basic_stringIcSt11char_traitsIcESaIcEEEENK3$_0clERNS1_21CreateRegularFileSinkEEUlmE_E14_M_get_pointerERKSt9_Any_data"(ptr noundef nonnull align 8 dereferenceable(16) %5) #1
  %7 = load ptr, ptr %4, align 8
  call void @"_ZSt10__invoke_rIvRZZN3nix13copyRecursiveERNS0_14SourceAccessorERKNS0_9CanonPathERNS0_20FileSystemObjectSinkERKNSt7__cxx1112basic_stringIcSt11char_traitsIcESaIcEEEENK3$_0clERNS0_21CreateRegularFileSinkEEUlmE_JmEENSt9enable_ifIX16is_invocable_r_vIT_T0_DpT1_EESM_E4typeEOSN_DpOSO_"(ptr noundef nonnull align 8 dereferenceable(8) %6, ptr noundef nonnull align 8 dereferenceable(8) %7)
  ret void
}