; Function Attrs: mustprogress uwtable
define internal void @"_ZNSt17_Function_handlerIFvmEZZN3nix13copyRecursiveERNS1_14SourceAccessorERKNS1_9CanonPathERNS1_20FileSystemObjectSinkERKNSt7__cxx1112basic_stringIcSt11char_traitsIcESaIcEEEENK3$_0clERNS1_21CreateRegularFileSinkEEUlmE_E9_M_invokeERKSt9_Any_dataOm"(ptr nocapture noundef nonnull readonly align 8 dereferenceable(16) %0, ptr nocapture noundef nonnull readonly align 8 dereferenceable(8) %1) #4 align 2 {
  %.val = load ptr, ptr %0, align 8
  %.val2 = load i64, ptr %1, align 8
  %3 = load ptr, ptr %.val, align 8
  %4 = getelementptr inbounds i8, ptr %3, i64 40
  %5 = load ptr, ptr %4, align 8
  tail call void %5(ptr noundef nonnull align 8 dereferenceable(8) %.val, i64 noundef %.val2)
  ret void
}